(lp0
S'@SenShelby'
p1
aS'@DougJones'
p2
aS'@SenDanSullivan'
p3
aS'@lisamurkowski'
p4
aS'@SenJohnMcCain'
p5
aS'@JeffFlake'
p6
aS'@SenTomCotton'
p7
aS'@JohnBoozman'
p8
aS'@SenFeinstein'
p9
aS'@KamalaHarris'
p10
aS'@SenCoryGardner'
p11
aS'@SenBennetCO'
p12
aS'@ChrisMurphyCT'
p13
aS'@SenBlumenthal'
p14
aS'@ChrisCoons'
p15
aS'@SenatorCarper'
p16
aS'@marcorubio'
p17
aS'@SenBillNelson'
p18
aS'@sendavidperdue'
p19
aS'@SenatorIsakson'
p20
aS'@SenBrianSchatz'
p21
aS'@maziehirono'
p22
aS'@SenatorRisch'
p23
aS'@MikeCrapo'
p24
aS'@SenDuckworth'
p25
aS'@SenatorDurbin'
p26
aS'@SenDonnelly'
p27
aS'@SenToddYoung'
p28
aS'@ChuckGrassley'
p29
aS'@SenJoniErnst'
p30
aS'@SenPatRoberts'
p31
aS'@JerryMoran'
p32
aS'@RandPaul'
p33
aS'@SenateMajLdr'
p34
aS'@JohnKennedyLA'
p35
aS'@BillCassidy'
p36
aS'@SenAngusKing'
p37
aS'@SenatorCollins'
p38
aS'@ChrisVanHollen'
p39
aS'@SenatorCardin'
p40
aS'@SenWarren'
p41
aS'@SenMarkey'
p42
aS'@SenStabenow'
p43
aS'@SenGaryPeters'
p44
aS'@AmyKlobuchar'
p45
aS'@SenTinaSmith'
p46
aS'@SenatorWicker'
p47
aS'@SenThadCochran'
p48
aS'@clairecmc'
p49
aS'@RoyBlunt'
p50
aS'@SenatorTester'
p51
aS'@SteveDaines'
p52
aS'@SenSasse'
p53
aS'@SenatorFischer'
p54
aS'@SenDeanHeller'
p55
aS'@CatherineForNV'
p56
aS'@SenatorShaheen'
p57
aS'@Maggie_Hassan'
p58
aS'@SenatorMenendez'
p59
aS'@CoryBooker'
p60
aS'@SenatorTomUdall'
p61
aS'@MartinHeinrich'
p62
aS'@SenSchumer'
p63
aS'@SenGillibrand'
p64
aS'@SenThomTillis'
p65
aS'@SenatorBurr'
p66
aS'@SenJohnHoeven'
p67
aS'@SenatorHeitkamp'
p68
aS'@senrobportman'
p69
aS'@SenSherrodBrown'
p70
aS'@SenatorLankford'
p71
aS'@InhofePress'
p72
aS'@RonWyden'
p73
aS'@SenJeffMerkley'
p74
aS'@SenToomey'
p75
aS'@SenBobCasey'
p76
aS'@SenWhitehouse'
p77
aS'@SenJackReed'
p78
aS'@SenatorTimScott'
p79
aS'@LindseyGrahamSC'
p80
aS'@SenJohnThune'
p81
aS'@SenatorRounds'
p82
aS'@SenBobCorker'
p83
aS'@SenAlexander'
p84
aS'@SenTedCruz'
p85
aS'@JohnCornyn'
p86
aS'@SenMikeLee'
p87
aS'@SenOrrinHatch'
p88
aS'@SenSanders'
p89
aS'@SenatorLeahy'
p90
aS'@MarkWarner'
p91
aS'@timkaine'
p92
aS'@PattyMurray'
p93
aS'@SenatorCantwell'
p94
aS'@JoeManchinWV'
p95
aS'@SenCapito'
p96
aS'@SenRonJohnson'
p97
aS'@SenatorBaldwin'
p98
aS'@SenatorEnzi'
p99
aS'@SenJohnBarrasso'
p100
aS'@RepByrne'
p101
aS'@RepMarthaRoby'
p102
aS'@RepMikeRogersAL'
p103
aS'@Robert_Aderholt'
p104
aS'@RepMoBrooks'
p105
aS'@USRepGaryPalmer'
p106
aS'@RepTerriSewell'
p107
aS'@repdonyoung'
p108
aS'@RepAmata'
p109
aS'@TomOHalleran'
p110
aS'@RepMcSally'
p111
aS'@RepRaulGrijalva'
p112
aS'@RepGosar'
p113
aS'@AndyBiggs4AZ'
p114
aS'@RepDavid'
p115
aS'@RepRubenGallego'
p116
aS'@RepTrentFranks'
p117
aS'@RepSinema'
p118
aS'@RepRickCrawford'
p119
aS'@RepFrenchHill'
p120
aS'@rep_stevewomack'
p121
aS'@RepWesterman'
p122
aS'@RepJeffDenham'
p123
aS'@RepDeSaulnier'
p124
aS'@NancyPelosi'
p125
aS'@RepBarbaraLee'
p126
aS'@RepSpeier'
p127
aS'@RepSwalwell'
p128
aS'@RepJimCosta'
p129
aS'@RoKhannaUSA'
p130
aS'@RepAnnaEshoo'
p131
aS'@RepZoeLofgren'
p132
aS'@RepLaMalfa'
p133
aS'@JimmyPanetta'
p134
aS'@RepDavidValadao'
p135
aS'@Rep_DevinNunes'
p136
aS'@GOPLeader'
p137
aS'@CarbajalSalud'
p138
aS'@SteveKnight25'
p139
aS'@JuliaBrownley26'
p140
aS'@RepJudyChu'
p141
aS'@RepAdamSchiff'
p142
aS'@RepCardenas'
p143
aS'@RepHuffman'
p144
aS'@BradSherman'
p145
aS'@RepPeteAguilar'
p146
aS'@gracenapolitano'
p147
aS'@RepTedLieu'
p148
aS'@RepJimmyGomez'
p149
aS'@NormaJTorres'
p150
aS'@CongressmanRuiz'
p151
aS'@RepKarenBass'
p152
aS'@RepLindaSanchez'
p153
aS'@RepEdRoyce'
p154
aS'@RepGaramendi'
p155
aS'@RepRoybalAllard'
p156
aS'@RepMarkTakano'
p157
aS'@KenCalvert'
p158
aS'@MaxineWaters'
p159
aS'@Nanette4CA'
p160
aS'@RepMimiWalters'
p161
aS'@LouCorreaCA'
p162
aS'@RepLowenthal'
p163
aS'@DanaRohrabacher'
p164
aS'@DarrellIssa'
p165
aS'@RepMcClintock'
p166
aS'@Rep_Hunter'
p167
aS'@RepJuanVargas'
p168
aS'@RepScottPeters'
p169
aS'@RepSusanDavis'
p170
aS'@RepThompson'
p171
aS'@DorisMatsui'
p172
aS'@RepBera'
p173
aS'@RepPaulCook'
p174
aS'@RepMcNerney'
p175
aS'@RepDianaDeGette'
p176
aS'@RepJaredPolis'
p177
aS'@RepTipton'
p178
aS'@RepKenBuck'
p179
aS'@RepDLamborn'
p180
aS'@RepMikeCoffman'
p181
aS'@RepPerlmutter'
p182
aS'@RepJohnLarson'
p183
aS'@RepJoeCourtney'
p184
aS'@rosadelauro'
p185
aS'@jahimes'
p186
aS'@RepEsty'
p187
aS'@LisaBRochester'
p188
aS'@EleanorNorton'
p189
aS'@Val_Demings'
p190
aS'@RepWebster'
p191
aS'@RepGusBilirakis'
p192
aS'@CharlieCrist'
p193
aS'@USRepKCastor'
p194
aS'@RepDennisRoss'
p195
aS'@VernBuchanan'
p196
aS'@TomRooney'
p197
aS'@BrianMastFL'
p198
aS'@FrancisRooney'
p199
aS'@MattGaetz'
p200
aS'@RepHastingsFL'
p201
aS'@RepLoisFrankel'
p202
aS'@RepTedDeutch'
p203
aS'@RepDWStweets'
p204
aS'@RepWilson'
p205
aS'@MarioDB'
p206
aS'@RepCurbelo'
p207
aS'@RosLehtinen'
p208
aS'@DrNealDunn'
p209
aS'@RepTedYoho'
p210
aS'@JRutherfordFL'
p211
aS'@AlLawsonJr'
p212
aS'@RepDeSantis'
p213
aS'@SMurphyCongress'
p214
aS'@congbillposey'
p215
aS'@USRepDarrenSoto'
p216
aS'@CongressmanHice'
p217
aS'@RepLoudermilk'
p218
aS'@RepRickAllen'
p219
aS'@repdavidscott'
p220
aS'@RepTomGraves'
p221
aS'@RepBuddyCarter'
p222
aS'@SanfordBishop'
p223
aS'@DrewFergusonGA'
p224
aS'@RepHankJohnson'
p225
aS'@repjohnlewis'
p226
aS'@KarenHandel'
p227
aS'@RepRobWoodall'
p228
aS'@AustinScottGA08'
p229
aS'@RepDougCollins'
p230
aS'@ColleenHanabusa'
p231
aS'@TulsiPress'
p232
aS'@Raul_Labrador'
p233
aS'@CongMikeSimpson'
p234
aS'@RepSchneider'
p235
aS'@RepBillFoster'
p236
aS'@RepBost'
p237
aS'@RodneyDavis'
p238
aS'@RepHultgren'
p239
aS'@RepShimkus'
p240
aS'@RepKinzinger'
p241
aS'@RepCheri'
p242
aS'@ElectLaHood'
p243
aS'@RepBobbyRush'
p244
aS'@RepRobinKelly'
p245
aS'@RepLipinski'
p246
aS'@RepGutierrez'
p247
aS'@RepMikeQuigley'
p248
aS'@PeterRoskam'
p249
aS'@RepDannyDavis'
p250
aS'@RajaForCongress'
p251
aS'@janschakowsky'
p252
aS'@RepVisclosky'
p253
aS'@RepWalorski'
p254
aS'@Jim_Banks'
p255
aS'@ToddRokita'
p256
aS'@SusanWBrooks'
p257
aS'@RepLukeMesser'
p258
aS'@RepAndreCarson'
p259
aS'@RepLarryBucshon'
p260
aS'@VoteForTrey'
p261
aS'@RepRodBlum'
p262
aS'@daveloebsack'
p263
aS'@RepDavidYoung'
p264
aS'@SteveKingIA'
p265
aS'@RogerMarshallMD'
p266
aS'@RepLynnJenkins'
p267
aS'@RepKevinYoder'
p268
aS'@RepRonEstes'
p269
aS'@KYComer'
p270
aS'@RepGuthrie'
p271
aS'@RepJohnYarmuth'
p272
aS'@RepThomasMassie'
p273
aS'@RepHalRogers'
p274
aS'@RepAndyBarr'
p275
aS'@SteveScalise'
p276
aS'@RepRichmond'
p277
aS'@CaptClayHIggins'
p278
aS'@RepMikeJohnson'
p279
aS'@RepAbraham'
p280
aS'@RepGarretGraves'
p281
aS'@chelliepingree'
p282
aS'@RepPoliquin'
p283
aS'@RepAndyHarrisMD'
p284
aS'@Call_Me_Dutch'
p285
aS'@RepSarbanes'
p286
aS'@BrownforMD'
p287
aS'@WhipHoyer'
p288
aS'@RepJohnDelaney'
p289
aS'@RepCummings'
p290
aS'@Jamie_Raskin'
p291
aS'@RepRichardNeal'
p292
aS'@RepMcGovern'
p293
aS'@nikiinthehouse'
p294
aS'@RepJoeKennedy'
p295
aS'@RepKClark'
p296
aS'@teammoulton'
p297
aS'@mikecapuano'
p298
aS'@RepStephenLynch'
p299
aS'@USRepKeating'
p300
aS'@PaulMitchell4us'
p301
aS'@repdavetrott'
p302
aS'@RepDebDingell'
p303
aS'@repjohnconyers'
p304
aS'@RepLawrence'
p305
aS'@JackBergman_MI1'
p306
aS'@RepHuizenga'
p307
aS'@justinamash'
p308
aS'@RepMoolenaar'
p309
aS'@RepDanKildee'
p310
aS'@RepFredUpton'
p311
aS'@RepWalberg'
p312
aS'@RepMikeBishop'
p313
aS'@repsandylevin'
p314
aS'@RepTimWalz'
p315
aS'@Jason2CD'
p316
aS'@RepErikPaulsen'
p317
aS'@BettyMcCollum04'
p318
aS'@keithellison'
p319
aS'@RepTomEmmer'
p320
aS'@collinpeterson'
p321
aS'@USRepRickNolan'
p322
aS'@RepTrentKelly'
p323
aS'@BennieGThompson'
p324
aS'@GreggHarper'
p325
aS'@CongPalazzo'
p326
aS'@LacyClayMO1'
p327
aS'@RepAnnWagner'
p328
aS'@RepBlainePress'
p329
aS'@RepHartzler'
p330
aS'@repcleaver'
p331
aS'@RepSamGraves'
p332
aS'@USRepLong'
p333
aS'@RepJasonSmith'
p334
aS'@Gianforte'
p335
aS'@JeffFortenberry'
p336
aS'@DonBacon2016'
p337
aS'@RepAdrianSmith'
p338
aS'@repdinatitus'
p339
aS'@MarkAmodeiNV2'
p340
aS'@RosenforNevada'
p341
aS'@RubenKihuen'
p342
aS'@RepSheaPorter'
p343
aS'@RepAnnieKuster'
p344
aS'@RepDonaldPayne'
p345
aS'@USRepRodney'
p346
aS'@RepBWColeman'
p347
aS'@DonNorcross4NJ'
p348
aS'@RepLoBiondo'
p349
aS'@RepTomMacArthur'
p350
aS'@RepChrisSmith'
p351
aS'@JoshGottheimer'
p352
aS'@FrankPallone'
p353
aS'@RepLanceNJ7'
p354
aS'@RepSires'
p355
aS'@BillPascrell'
p356
aS'@RepLujanGrisham'
p357
aS'@RepStevePearce'
p358
aS'@repbenraylujan'
p359
aS'@RepJerryNadler'
p360
aS'@RepDanDonovan'
p361
aS'@RepMaloney'
p362
aS'@EspaillatNY'
p363
aS'@repjoecrowley'
p364
aS'@RepJoseSerrano'
p365
aS'@RepEliotEngel'
p366
aS'@NitaLowey'
p367
aS'@RepSeanMaloney'
p368
aS'@JohnFasoNY'
p369
aS'@RepLeeZeldin'
p370
aS'@RepPaulTonko'
p371
aS'@RepStefanik'
p372
aS'@ClaudiaTenney'
p373
aS'@RepTomReed'
p374
aS'@RepJohnKatko'
p375
aS'@louiseslaughter'
p376
aS'@RepBrianHiggins'
p377
aS'@RepChrisCollins'
p378
aS'@RepPeteKing'
p379
aS'@Tom_Suozzi'
p380
aS'@RepKathleenRice'
p381
aS'@GregoryMeeks'
p382
aS'@RepGraceMeng'
p383
aS'@NydiaVelazquez'
p384
aS'@RepJeffries'
p385
aS'@YvetteClarke'
p386
aS'@PatrickMcHenry'
p387
aS'@RepMarkMeadows'
p388
aS'@RepAdams'
p389
aS'@BuddforCongress'
p390
aS'@GKButterfield'
p391
aS'@GeorgeHolding'
p392
aS'@RepWalterJones'
p393
aS'@RepDavidEPrice'
p394
aS'@virginiafoxx'
p395
aS'@RepMarkWalker'
p396
aS'@RepDavidRouzer'
p397
aS'@RepRichHudson'
p398
aS'@reppittenger'
p399
aS'@RepKevinCramer'
p400
aS'@RepMikeTurner'
p401
aS'@RepMarciaFudge'
p402
aS'@PatTiberi'
p403
aS'@RepTimRyan'
p404
aS'@RepDaveJoyce'
p405
aS'@RepSteveStivers'
p406
aS'@RepJimRenacci'
p407
aS'@RepSteveChabot'
p408
aS'@RepBradWenstrup'
p409
aS'@RepBeatty'
p410
aS'@Jim_Jordan'
p411
aS'@boblatta'
p412
aS'@RepBillJohnson'
p413
aS'@RepBobGibbs'
p414
aS'@WarrenDavidson'
p415
aS'@RepMarcyKaptur'
p416
aS'@RepJBridenstine'
p417
aS'@RepMullin'
p418
aS'@RepFrankLucas'
p419
aS'@TomColeOK04'
p420
aS'@RepRussell'
p421
aS'@RepBonamici'
p422
aS'@repgregwalden'
p423
aS'@repblumenauer'
p424
aS'@RepPeterDeFazio'
p425
aS'@RepSchrader'
p426
aS'@RepTomMarino'
p427
aS'@RepLouBarletta'
p428
aS'@KeithRothfus'
p429
aS'@RepBrendanBoyle'
p430
aS'@USRepMikeDoyle'
p431
aS'@RepCharlieDent'
p432
aS'@SenatorSmucker'
p433
aS'@RepCartwright'
p434
aS'@RepTimMurphy'
p435
aS'@RepBrady'
p436
aS'@DwightEvansPA'
p437
aS'@MikeKellyPA'
p438
aS'@RepScottPerry'
p439
aS'@CongressmanGT'
p440
aS'@RepRyanCostello'
p441
aS'@RepMeehan'
p442
aS'@RepBrianFitz'
p443
aS'@RepBillShuster'
p444
aS'@Jenniffer2012'
p445
aS'@RepCicilline'
p446
aS'@jimlangevin'
p447
aS'@RepSanfordSC'
p448
aS'@RepJoeWilson'
p449
aS'@RepJeffDuncan'
p450
aS'@TGowdySC'
p451
aS'@RepRalphNorman'
p452
aS'@Clyburn'
p453
aS'@RepTomRice'
p454
aS'@RepKristiNoem'
p455
aS'@DrPhilRoe'
p456
aS'@RepJohnDuncanJr'
p457
aS'@RepChuck'
p458
aS'@DesJarlaisTN04'
p459
aS'@repjimcooper'
p460
aS'@RepDianeBlack'
p461
aS'@MarshaBlackburn'
p462
aS'@DavidKustoff'
p463
aS'@RepCohen'
p464
aS'@RepMcCaul'
p465
aS'@ConawayTX11'
p466
aS'@RepKayGranger'
p467
aS'@MacTXPress'
p468
aS'@TXRandy14'
p469
aS'@VoteVincente'
p470
aS'@RepBetoORourke'
p471
aS'@RepBillFlores'
p472
aS'@JacksonLeeTX18'
p473
aS'@JodeyArrington'
p474
aS'@replouiegohmert'
p475
aS'@JoaquinCastrotx'
p476
aS'@LamarSmithTX21'
p477
aS'@PeteOlson'
p478
aS'@HurdOnTheHill'
p479
aS'@RepKenMarchant'
p480
aS'@RepRWilliams'
p481
aS'@michaelcburgess'
p482
aS'@farenthold'
p483
aS'@RepCuellar'
p484
aS'@RepGeneGreen'
p485
aS'@JudgeTedPoe'
p486
aS'@RepEBJ'
p487
aS'@JudgeCarter'
p488
aS'@PeteSessions'
p489
aS'@RepVeasey'
p490
aS'@RepFilemonVela'
p491
aS'@RepLloydDoggett'
p492
aS'@RepBrianBabin'
p493
aS'@SamsPressShop'
p494
aS'@RepRatcliffe'
p495
aS'@RepHensarling'
p496
aS'@RepJoeBarton'
p497
aS'@CongCulberson'
p498
aS'@RepKevinBrady'
p499
aS'@RepAlGreen'
p500
aS'@RepHalRogers'
p501
aS'@RepChrisStewart'
p502
aS'@jasoninthehouse'
p503
aS'@RepMiaLove'
p504
aS'@PeterWelch'
p505
aS'@StaceyPlaskett'
p506
aS'@RepComstock'
p507
aS'@GerryConnolly'
p508
aS'@RobWittman'
p509
aS'@ScotttaylorVA'
p510
aS'@repbobbyscott'
p511
aS'@Donald_McEachin'
p512
aS'@GarrettforVA'
p513
aS'@RepGoodlatte'
p514
aS'@RepDaveBrat'
p515
aS'@RepDonBeyer'
p516
aS'@RepMGriffith'
p517
aS'@RepDennyHeck'
p518
aS'@RepDelBene'
p519
aS'@RepRickLarsen'
p520
aS'@HerreraBeutler'
p521
aS'@RepNewhouse'
p522
aS'@cathymcmorris'
p523
aS'@RepDerekKilmer'
p524
aS'@PramilaJayapal'
p525
aS'@davereichert'
p526
aS'@RepAdamSmith'
p527
aS'@RepMcKinley'
p528
aS'@RepAlexMooney'
p529
aS'@RepEvanJenkins'
p530
aS'@RepPaulRyan'
p531
aS'@repmarkpocan'
p532
aS'@RepRonKind'
p533
aS'@RepGwenMoore'
p534
aS'@JimPressOffice'
p535
aS'@RepGrothman'
p536
aS'@RepSeanDuffy'
p537
aS'@MikeforWI'
p538
aS'@Liz_Cheney'
p539
a.